; Function Attrs: nounwind uwtable
define hidden noundef signext i8 @nfaExecLbrTruf_reportCurrent(ptr noundef readonly captures(none) %0, ptr noundef readonly captures(none) %1) local_unnamed_addr #0 {
  %3 = getelementptr inbounds nuw i8, ptr %1, i64 32
  %4 = load i64, ptr %3, align 8
  %5 = getelementptr inbounds nuw i8, ptr %1, i64 8
  %6 = load i32, ptr %5, align 8
  %7 = zext i32 %6 to i64
  %.idx.i = mul nuw nsw i64 %7, 24
  %8 = getelementptr i8, ptr %1, i64 112
  %9 = getelementptr i8, ptr %8, i64 %.idx.i
  %10 = load i64, ptr %9, align 8
  %11 = add i64 %10, %4
  %12 = getelementptr inbounds nuw i8, ptr %1, i64 88
  %13 = load ptr, ptr %12, align 8
  %14 = getelementptr inbounds nuw i8, ptr %0, i64 68
  %15 = load i32, ptr %14, align 4
  %16 = getelementptr inbounds nuw i8, ptr %1, i64 96
  %17 = load ptr, ptr %16, align 8
  %18 = tail call i32 %13(i64 noundef 0, i64 noundef %11, i32 noundef %15, ptr noundef %17) #8
  ret i8 0
}